; Function Attrs: nounwind uwtable
define ptr @Cudd_bddIsop(ptr noundef initializes((448, 452)) %0, ptr noundef %1, ptr noundef %2) local_unnamed_addr #0 {
  %4 = getelementptr inbounds nuw i8, ptr %0, i64 448
  br label %5

5:                                                ; preds = %5, %3
  store i32 0, ptr %4, align 8, !tbaa !24
  %6 = tail call ptr @cuddBddIsop(ptr noundef %0, ptr noundef %1, ptr noundef %2)
  %7 = load i32, ptr %4, align 8, !tbaa !24
  %8 = icmp eq i32 %7, 1
  br i1 %8, label %5, label %9, !llvm.loop !35

9:                                                ; preds = %5
  ret ptr %6
}